target datalayout = "e-m:e-p270:32:32-p271:32:32-p272:64:64-i64:64-i128:128-f80:128-n8:16:32:64-S128"
target triple = "x86_64-pc-linux-gnu"

; Function Attrs: nounwind uwtable
define internal void @put_pixels16_8_c(ptr noundef %0, ptr noundef %1, i64 noundef %2, i32 noundef %3) #2 {
  %5 = alloca ptr, align 8
  %6 = alloca ptr, align 8
  %7 = alloca i64, align 8
  %8 = alloca i32, align 4
  store ptr %0, ptr %5, align 8, !tbaa !10
  store ptr %1, ptr %6, align 8, !tbaa !10
  store i64 %2, ptr %7, align 8, !tbaa !48
  store i32 %3, ptr %8, align 4, !tbaa !12
  %9 = load ptr, ptr %5, align 8, !tbaa !10
  %10 = load ptr, ptr %6, align 8, !tbaa !10
  %11 = load i64, ptr %7, align 8, !tbaa !48
  %12 = load i32, ptr %8, align 4, !tbaa !12
  call void @put_pixels8_8_c(ptr noundef %9, ptr noundef %10, i64 noundef %11, i32 noundef %12)
  %13 = load ptr, ptr %5, align 8, !tbaa !10
  %14 = getelementptr inbounds nuw i8, ptr %13, i64 8
  %15 = load ptr, ptr %6, align 8, !tbaa !10
  %16 = getelementptr inbounds nuw i8, ptr %15, i64 8
  %17 = load i64, ptr %7, align 8, !tbaa !48
  %18 = load i32, ptr %8, align 4, !tbaa !12
  call void @put_pixels8_8_c(ptr noundef %14, ptr noundef %16, i64 noundef %17, i32 noundef %18)
  ret void
}

; Function Attrs: inlinehint nounwind uwtable
define internal void @put_pixels8_8_c(ptr noundef %0, ptr noundef %1, i64 noundef %2, i32 noundef %3) #1 {
  %5 = alloca ptr, align 8
  %6 = alloca ptr, align 8
  %7 = alloca i64, align 8
  %8 = alloca i32, align 4
  %9 = alloca i32, align 4
  store ptr %0, ptr %5, align 8, !tbaa !10
  store ptr %1, ptr %6, align 8, !tbaa !10
  store i64 %2, ptr %7, align 8, !tbaa !48
  store i32 %3, ptr %8, align 4, !tbaa !12
  call void @llvm.lifetime.start.p0(i64 4, ptr %9) #4
  store i32 0, ptr %9, align 4, !tbaa !12
  br label %10

10:                                               ; preds = %29, %4
  %11 = load i32, ptr %9, align 4, !tbaa !12
  %12 = load i32, ptr %8, align 4, !tbaa !12
  %13 = icmp slt i32 %11, %12
  br i1 %13, label %14, label %32

14:                                               ; preds = %10
  %15 = load ptr, ptr %6, align 8, !tbaa !10
  %16 = load i32, ptr %15, align 1, !tbaa !14
  %17 = load ptr, ptr %5, align 8, !tbaa !10
  store i32 %16, ptr %17, align 4, !tbaa !12
  %18 = load ptr, ptr %6, align 8, !tbaa !10
  %19 = getelementptr inbounds nuw i8, ptr %18, i64 4
  %20 = load i32, ptr %19, align 1, !tbaa !14
  %21 = load ptr, ptr %5, align 8, !tbaa !10
  %22 = getelementptr inbounds nuw i8, ptr %21, i64 4
  store i32 %20, ptr %22, align 4, !tbaa !12
  %23 = load i64, ptr %7, align 8, !tbaa !48
  %24 = load ptr, ptr %6, align 8, !tbaa !10
  %25 = getelementptr inbounds i8, ptr %24, i64 %23
  store ptr %25, ptr %6, align 8, !tbaa !10
  %26 = load i64, ptr %7, align 8, !tbaa !48
  %27 = load ptr, ptr %5, align 8, !tbaa !10
  %28 = getelementptr inbounds i8, ptr %27, i64 %26
  store ptr %28, ptr %5, align 8, !tbaa !10
  br label %29

29:                                               ; preds = %14
  %30 = load i32, ptr %9, align 4, !tbaa !12
  %31 = add nsw i32 %30, 1
  store i32 %31, ptr %9, align 4, !tbaa !12
  br label %10, !llvm.loop !54

32:                                               ; preds = %10
  call void @llvm.lifetime.end.p0(i64 4, ptr %9) #4
  ret void
}

; Function Attrs: inlinehint nounwind uwtable
define internal void @put_pixels4_8_c(ptr noundef %0, ptr noundef %1, i64 noundef %2, i32 noundef %3) #1 {
  %5 = alloca ptr, align 8
  %6 = alloca ptr, align 8
  %7 = alloca i64, align 8
  %8 = alloca i32, align 4
  %9 = alloca i32, align 4
  store ptr %0, ptr %5, align 8, !tbaa !10
  store ptr %1, ptr %6, align 8, !tbaa !10
  store i64 %2, ptr %7, align 8, !tbaa !48
  store i32 %3, ptr %8, align 4, !tbaa !12
  call void @llvm.lifetime.start.p0(i64 4, ptr %9) #4
  store i32 0, ptr %9, align 4, !tbaa !12
  br label %10

10:                                               ; preds = %24, %4
  %11 = load i32, ptr %9, align 4, !tbaa !12
  %12 = load i32, ptr %8, align 4, !tbaa !12
  %13 = icmp slt i32 %11, %12
  br i1 %13, label %14, label %27

14:                                               ; preds = %10
  %15 = load ptr, ptr %6, align 8, !tbaa !10
  %16 = load i32, ptr %15, align 1, !tbaa !14
  %17 = load ptr, ptr %5, align 8, !tbaa !10
  store i32 %16, ptr %17, align 4, !tbaa !12
  %18 = load i64, ptr %7, align 8, !tbaa !48
  %19 = load ptr, ptr %6, align 8, !tbaa !10
  %20 = getelementptr inbounds i8, ptr %19, i64 %18
  store ptr %20, ptr %6, align 8, !tbaa !10
  %21 = load i64, ptr %7, align 8, !tbaa !48
  %22 = load ptr, ptr %5, align 8, !tbaa !10
  %23 = getelementptr inbounds i8, ptr %22, i64 %21
  store ptr %23, ptr %5, align 8, !tbaa !10
  br label %24

24:                                               ; preds = %14
  %25 = load i32, ptr %9, align 4, !tbaa !12
  %26 = add nsw i32 %25, 1
  store i32 %26, ptr %9, align 4, !tbaa !12
  br label %10, !llvm.loop !53

27:                                               ; preds = %10
  call void @llvm.lifetime.end.p0(i64 4, ptr %9) #4
  ret void
}

; Function Attrs: inlinehint nounwind uwtable
define internal void @put_pixels2_8_c(ptr noundef %0, ptr noundef %1, i64 noundef %2, i32 noundef %3) #1 {
  %5 = alloca ptr, align 8
  %6 = alloca ptr, align 8
  %7 = alloca i64, align 8
  %8 = alloca i32, align 4
  %9 = alloca i32, align 4
  store ptr %0, ptr %5, align 8, !tbaa !10
  store ptr %1, ptr %6, align 8, !tbaa !10
  store i64 %2, ptr %7, align 8, !tbaa !48
  store i32 %3, ptr %8, align 4, !tbaa !12
  call void @llvm.lifetime.start.p0(i64 4, ptr %9) #4
  store i32 0, ptr %9, align 4, !tbaa !12
  br label %10

10:                                               ; preds = %24, %4
  %11 = load i32, ptr %9, align 4, !tbaa !12
  %12 = load i32, ptr %8, align 4, !tbaa !12
  %13 = icmp slt i32 %11, %12
  br i1 %13, label %14, label %27

14:                                               ; preds = %10
  %15 = load ptr, ptr %6, align 8, !tbaa !10
  %16 = load i16, ptr %15, align 1, !tbaa !14
  %17 = load ptr, ptr %5, align 8, !tbaa !10
  store i16 %16, ptr %17, align 2, !tbaa !50
  %18 = load i64, ptr %7, align 8, !tbaa !48
  %19 = load ptr, ptr %6, align 8, !tbaa !10
  %20 = getelementptr inbounds i8, ptr %19, i64 %18
  store ptr %20, ptr %6, align 8, !tbaa !10
  %21 = load i64, ptr %7, align 8, !tbaa !48
  %22 = load ptr, ptr %5, align 8, !tbaa !10
  %23 = getelementptr inbounds i8, ptr %22, i64 %21
  store ptr %23, ptr %5, align 8, !tbaa !10
  br label %24

24:                                               ; preds = %14
  %25 = load i32, ptr %9, align 4, !tbaa !12
  %26 = add nsw i32 %25, 1
  store i32 %26, ptr %9, align 4, !tbaa !12
  br label %10, !llvm.loop !52

27:                                               ; preds = %10
  call void @llvm.lifetime.end.p0(i64 4, ptr %9) #4
  ret void
}

; Function Attrs: inlinehint nounwind uwtable
define internal void @put_tpel_pixels_mc00_c(ptr noundef %0, ptr noundef %1, i32 noundef %2, i32 noundef %3, i32 noundef %4) #1 {
  %6 = alloca ptr, align 8
  %7 = alloca ptr, align 8
  %8 = alloca i32, align 4
  %9 = alloca i32, align 4
  %10 = alloca i32, align 4
  store ptr %0, ptr %6, align 8, !tbaa !10
  store ptr %1, ptr %7, align 8, !tbaa !10
  store i32 %2, ptr %8, align 4, !tbaa !12
  store i32 %3, ptr %9, align 4, !tbaa !12
  store i32 %4, ptr %10, align 4, !tbaa !12
  %11 = load i32, ptr %9, align 4, !tbaa !12
  switch i32 %11, label %36 [
    i32 2, label %12
    i32 4, label %18
    i32 8, label %24
    i32 16, label %30
  ]

12:                                               ; preds = %5
  %13 = load ptr, ptr %6, align 8, !tbaa !10
  %14 = load ptr, ptr %7, align 8, !tbaa !10
  %15 = load i32, ptr %8, align 4, !tbaa !12
  %16 = sext i32 %15 to i64
  %17 = load i32, ptr %10, align 4, !tbaa !12
  call void @put_pixels2_8_c(ptr noundef %13, ptr noundef %14, i64 noundef %16, i32 noundef %17)
  br label %36

18:                                               ; preds = %5
  %19 = load ptr, ptr %6, align 8, !tbaa !10
  %20 = load ptr, ptr %7, align 8, !tbaa !10
  %21 = load i32, ptr %8, align 4, !tbaa !12
  %22 = sext i32 %21 to i64
  %23 = load i32, ptr %10, align 4, !tbaa !12
  call void @put_pixels4_8_c(ptr noundef %19, ptr noundef %20, i64 noundef %22, i32 noundef %23)
  br label %36

24:                                               ; preds = %5
  %25 = load ptr, ptr %6, align 8, !tbaa !10
  %26 = load ptr, ptr %7, align 8, !tbaa !10
  %27 = load i32, ptr %8, align 4, !tbaa !12
  %28 = sext i32 %27 to i64
  %29 = load i32, ptr %10, align 4, !tbaa !12
  call void @put_pixels8_8_c(ptr noundef %25, ptr noundef %26, i64 noundef %28, i32 noundef %29)
  br label %36

30:                                               ; preds = %5
  %31 = load ptr, ptr %6, align 8, !tbaa !10
  %32 = load ptr, ptr %7, align 8, !tbaa !10
  %33 = load i32, ptr %8, align 4, !tbaa !12
  %34 = sext i32 %33 to i64
  %35 = load i32, ptr %10, align 4, !tbaa !12
  call void @put_pixels16_8_c(ptr noundef %31, ptr noundef %32, i64 noundef %34, i32 noundef %35)
  br label %36

36:                                               ; preds = %5, %30, %24, %18, %12
  ret void
}