; Function Attrs: inlinehint nofree norecurse nosync nounwind memory(argmem: readwrite) uwtable
define internal void @put_tpel_pixels_mc00_c(ptr noundef writeonly captures(none) %0, ptr noundef readonly captures(none) %1, i32 noundef %2, i32 noundef %3, i32 noundef %4) #1 {
  %6 = add i32 %3, -2
  %7 = tail call i32 @llvm.fshl.i32(i32 %6, i32 %6, i32 31)
  switch i32 %7, label %put_pixels2_8_c.exit [
    i32 0, label %8
    i32 1, label %15
    i32 3, label %22
    i32 7, label %32
  ]

8:                                                ; preds = %5
  %9 = sext i32 %2 to i64
  %10 = icmp sgt i32 %4, 0
  br i1 %10, label %.lr.ph.i, label %put_pixels2_8_c.exit

.lr.ph.i:                                         ; preds = %8, %.lr.ph.i
  %.012.i = phi i32 [ %14, %.lr.ph.i ], [ 0, %8 ]
  %.0811.i = phi ptr [ %13, %.lr.ph.i ], [ %0, %8 ]
  %.0910.i = phi ptr [ %12, %.lr.ph.i ], [ %1, %8 ]
  %11 = load i16, ptr %.0910.i, align 1, !tbaa !8
  store i16 %11, ptr %.0811.i, align 2, !tbaa !9
  %12 = getelementptr inbounds i8, ptr %.0910.i, i64 %9
  %13 = getelementptr inbounds i8, ptr %.0811.i, i64 %9
  %14 = add nuw nsw i32 %.012.i, 1
  %exitcond.not.i = icmp eq i32 %14, %4
  br i1 %exitcond.not.i, label %put_pixels2_8_c.exit, label %.lr.ph.i, !llvm.loop !11

15:                                               ; preds = %5
  %16 = sext i32 %2 to i64
  %17 = icmp sgt i32 %4, 0
  br i1 %17, label %.lr.ph.i16, label %put_pixels2_8_c.exit

.lr.ph.i16:                                       ; preds = %15, %.lr.ph.i16
  %.012.i17 = phi i32 [ %21, %.lr.ph.i16 ], [ 0, %15 ]
  %.0811.i18 = phi ptr [ %20, %.lr.ph.i16 ], [ %0, %15 ]
  %.0910.i19 = phi ptr [ %19, %.lr.ph.i16 ], [ %1, %15 ]
  %18 = load i32, ptr %.0910.i19, align 1, !tbaa !8
  store i32 %18, ptr %.0811.i18, align 4, !tbaa !13
  %19 = getelementptr inbounds i8, ptr %.0910.i19, i64 %16
  %20 = getelementptr inbounds i8, ptr %.0811.i18, i64 %16
  %21 = add nuw nsw i32 %.012.i17, 1
  %exitcond.not.i20 = icmp eq i32 %21, %4
  br i1 %exitcond.not.i20, label %put_pixels2_8_c.exit, label %.lr.ph.i16, !llvm.loop !15

22:                                               ; preds = %5
  %23 = sext i32 %2 to i64
  %24 = icmp sgt i32 %4, 0
  br i1 %24, label %.lr.ph.i21, label %put_pixels2_8_c.exit

.lr.ph.i21:                                       ; preds = %22, %.lr.ph.i21
  %.014.i = phi i32 [ %31, %.lr.ph.i21 ], [ 0, %22 ]
  %.01013.i = phi ptr [ %30, %.lr.ph.i21 ], [ %0, %22 ]
  %.01112.i = phi ptr [ %29, %.lr.ph.i21 ], [ %1, %22 ]
  %25 = load i32, ptr %.01112.i, align 1, !tbaa !8
  store i32 %25, ptr %.01013.i, align 4, !tbaa !13
  %26 = getelementptr inbounds nuw i8, ptr %.01112.i, i64 4
  %27 = load i32, ptr %26, align 1, !tbaa !8
  %28 = getelementptr inbounds nuw i8, ptr %.01013.i, i64 4
  store i32 %27, ptr %28, align 4, !tbaa !13
  %29 = getelementptr inbounds i8, ptr %.01112.i, i64 %23
  %30 = getelementptr inbounds i8, ptr %.01013.i, i64 %23
  %31 = add nuw nsw i32 %.014.i, 1
  %exitcond.not.i22 = icmp eq i32 %31, %4
  br i1 %exitcond.not.i22, label %put_pixels2_8_c.exit, label %.lr.ph.i21, !llvm.loop !16

32:                                               ; preds = %5
  %33 = sext i32 %2 to i64
  %34 = icmp sgt i32 %4, 0
  br i1 %34, label %.lr.ph.i.i, label %put_pixels2_8_c.exit

.lr.ph.i.i:                                       ; preds = %32, %.lr.ph.i.i
  %.014.i.i = phi i32 [ %41, %.lr.ph.i.i ], [ 0, %32 ]
  %.01013.i.i = phi ptr [ %40, %.lr.ph.i.i ], [ %0, %32 ]
  %.01112.i.i = phi ptr [ %39, %.lr.ph.i.i ], [ %1, %32 ]
  %35 = load i32, ptr %.01112.i.i, align 1, !tbaa !8
  store i32 %35, ptr %.01013.i.i, align 4, !tbaa !13
  %36 = getelementptr inbounds nuw i8, ptr %.01112.i.i, i64 4
  %37 = load i32, ptr %36, align 1, !tbaa !8
  %38 = getelementptr inbounds nuw i8, ptr %.01013.i.i, i64 4
  store i32 %37, ptr %38, align 4, !tbaa !13
  %39 = getelementptr inbounds i8, ptr %.01112.i.i, i64 %33
  %40 = getelementptr inbounds i8, ptr %.01013.i.i, i64 %33
  %41 = add nuw nsw i32 %.014.i.i, 1
  %exitcond.not.i.i = icmp eq i32 %41, %4
  br i1 %exitcond.not.i.i, label %put_pixels8_8_c.exit.i, label %.lr.ph.i.i, !llvm.loop !16

put_pixels8_8_c.exit.i:                           ; preds = %.lr.ph.i.i
  %42 = getelementptr inbounds nuw i8, ptr %0, i64 8
  %43 = getelementptr inbounds nuw i8, ptr %1, i64 8
  br label %.lr.ph.i7.i

.lr.ph.i7.i:                                      ; preds = %.lr.ph.i7.i, %put_pixels8_8_c.exit.i
  %.014.i8.i = phi i32 [ %50, %.lr.ph.i7.i ], [ 0, %put_pixels8_8_c.exit.i ]
  %.01013.i9.i = phi ptr [ %49, %.lr.ph.i7.i ], [ %42, %put_pixels8_8_c.exit.i ]
  %.01112.i10.i = phi ptr [ %48, %.lr.ph.i7.i ], [ %43, %put_pixels8_8_c.exit.i ]
  %44 = load i32, ptr %.01112.i10.i, align 1, !tbaa !8
  store i32 %44, ptr %.01013.i9.i, align 4, !tbaa !13
  %45 = getelementptr inbounds nuw i8, ptr %.01112.i10.i, i64 4
  %46 = load i32, ptr %45, align 1, !tbaa !8
  %47 = getelementptr inbounds nuw i8, ptr %.01013.i9.i, i64 4
  store i32 %46, ptr %47, align 4, !tbaa !13
  %48 = getelementptr inbounds i8, ptr %.01112.i10.i, i64 %33
  %49 = getelementptr inbounds i8, ptr %.01013.i9.i, i64 %33
  %50 = add nuw nsw i32 %.014.i8.i, 1
  %exitcond.not.i11.i = icmp eq i32 %50, %4
  br i1 %exitcond.not.i11.i, label %put_pixels2_8_c.exit, label %.lr.ph.i7.i, !llvm.loop !16

put_pixels2_8_c.exit:                             ; preds = %.lr.ph.i7.i, %.lr.ph.i21, %.lr.ph.i16, %.lr.ph.i, %32, %22, %15, %8, %5
  ret void
}